target datalayout = "e-m:e-p270:32:32-p271:32:32-p272:64:64-i64:64-i128:128-f80:128-n8:16:32:64-S128"
target triple = "x86_64-unknown-linux-gnu"

; Function Attrs: mustprogress nounwind uwtable
define linkonce_odr hidden noundef i32 @_ZN7testing8internal5posix10StrCaseCmpEPKcS3_(ptr noundef %s1, ptr noundef %s2) #5 comdat {
entry:
  %s1.addr = alloca ptr, align 8
  %s2.addr = alloca ptr, align 8
  store ptr %s1, ptr %s1.addr, align 8
  store ptr %s2, ptr %s2.addr, align 8
  %0 = load ptr, ptr %s1.addr, align 8
  %1 = load ptr, ptr %s2.addr, align 8
  %call = call i32 @strcasecmp(ptr noundef %0, ptr noundef %1) #19
  ret i32 %call
}

; Function Attrs: mustprogress uwtable
define noundef zeroext i1 @_ZN7testing8internal6String28CaseInsensitiveCStringEqualsEPKcS3_(ptr noundef %lhs, ptr noundef %rhs) #4 align 2 {
entry:
  %retval = alloca i1, align 1
  %lhs.addr = alloca ptr, align 8
  %rhs.addr = alloca ptr, align 8
  store ptr %lhs, ptr %lhs.addr, align 8
  store ptr %rhs, ptr %rhs.addr, align 8
  %0 = load ptr, ptr %lhs.addr, align 8
  %cmp = icmp eq ptr %0, null
  br i1 %cmp, label %if.then, label %if.end

if.then:                                          ; preds = %entry
  %1 = load ptr, ptr %rhs.addr, align 8
  %cmp1 = icmp eq ptr %1, null
  store i1 %cmp1, ptr %retval, align 1
  br label %return

if.end:                                           ; preds = %entry
  %2 = load ptr, ptr %rhs.addr, align 8
  %cmp2 = icmp eq ptr %2, null
  br i1 %cmp2, label %if.then3, label %if.end4

if.then3:                                         ; preds = %if.end
  store i1 false, ptr %retval, align 1
  br label %return

if.end4:                                          ; preds = %if.end
  %3 = load ptr, ptr %lhs.addr, align 8
  %4 = load ptr, ptr %rhs.addr, align 8
  %call = call noundef i32 @_ZN7testing8internal5posix10StrCaseCmpEPKcS3_(ptr noundef %3, ptr noundef %4)
  %cmp5 = icmp eq i32 %call, 0
  store i1 %cmp5, ptr %retval, align 1
  br label %return

return:                                           ; preds = %if.end4, %if.then3, %if.then
  %5 = load i1, ptr %retval, align 1
  ret i1 %5
}

; Function Attrs: mustprogress uwtable
define noundef zeroext i1 @_ZN7testing8internal6String23EndsWithCaseInsensitiveERKNSt7__cxx1112basic_stringIcSt11char_traitsIcESaIcEEES9_(ptr noundef nonnull align 8 dereferenceable(32) %str, ptr noundef nonnull align 8 dereferenceable(32) %suffix) #4 align 2 {
entry:
  %str.addr = alloca ptr, align 8
  %suffix.addr = alloca ptr, align 8
  %str_len = alloca i64, align 8
  %suffix_len = alloca i64, align 8
  store ptr %str, ptr %str.addr, align 8
  store ptr %suffix, ptr %suffix.addr, align 8
  %0 = load ptr, ptr %str.addr, align 8
  %call = call noundef i64 @_ZNKSt7__cxx1112basic_stringIcSt11char_traitsIcESaIcEE6lengthEv(ptr noundef nonnull align 8 dereferenceable(32) %0) #3
  store i64 %call, ptr %str_len, align 8
  %1 = load ptr, ptr %suffix.addr, align 8
  %call1 = call noundef i64 @_ZNKSt7__cxx1112basic_stringIcSt11char_traitsIcESaIcEE6lengthEv(ptr noundef nonnull align 8 dereferenceable(32) %1) #3
  store i64 %call1, ptr %suffix_len, align 8
  %2 = load i64, ptr %str_len, align 8
  %3 = load i64, ptr %suffix_len, align 8
  %cmp = icmp uge i64 %2, %3
  br i1 %cmp, label %land.rhs, label %land.end

land.rhs:                                         ; preds = %entry
  %4 = load ptr, ptr %str.addr, align 8
  %call2 = call noundef ptr @_ZNKSt7__cxx1112basic_stringIcSt11char_traitsIcESaIcEE5c_strEv(ptr noundef nonnull align 8 dereferenceable(32) %4) #3
  %5 = load i64, ptr %str_len, align 8
  %add.ptr = getelementptr inbounds i8, ptr %call2, i64 %5
  %6 = load i64, ptr %suffix_len, align 8
  %idx.neg = sub i64 0, %6
  %add.ptr3 = getelementptr inbounds i8, ptr %add.ptr, i64 %idx.neg
  %7 = load ptr, ptr %suffix.addr, align 8
  %call4 = call noundef ptr @_ZNKSt7__cxx1112basic_stringIcSt11char_traitsIcESaIcEE5c_strEv(ptr noundef nonnull align 8 dereferenceable(32) %7) #3
  %call5 = call noundef zeroext i1 @_ZN7testing8internal6String28CaseInsensitiveCStringEqualsEPKcS3_(ptr noundef %add.ptr3, ptr noundef %call4)
  br label %land.end

land.end:                                         ; preds = %land.rhs, %entry
  %8 = phi i1 [ false, %entry ], [ %call5, %land.rhs ]
  ret i1 %8
}