; Function Attrs: mustprogress nounwind uwtable
define noundef zeroext i1 @_ZN7testing8internal6String23EndsWithCaseInsensitiveERKNSt7__cxx1112basic_stringIcSt11char_traitsIcESaIcEEES9_(ptr noundef nonnull align 8 dereferenceable(32) %str, ptr noundef nonnull align 8 dereferenceable(32) %suffix) local_unnamed_addr #7 align 2 {
entry:
  %call = tail call noundef i64 @_ZNKSt7__cxx1112basic_stringIcSt11char_traitsIcESaIcEE6lengthEv(ptr noundef nonnull align 8 dereferenceable(32) %str) #47
  %call1 = tail call noundef i64 @_ZNKSt7__cxx1112basic_stringIcSt11char_traitsIcESaIcEE6lengthEv(ptr noundef nonnull align 8 dereferenceable(32) %suffix) #47
  %cmp.not = icmp ult i64 %call, %call1
  br i1 %cmp.not, label %land.end, label %land.rhs

land.rhs:                                         ; preds = %entry
  %call2 = tail call noundef ptr @_ZNKSt7__cxx1112basic_stringIcSt11char_traitsIcESaIcEE5c_strEv(ptr noundef nonnull align 8 dereferenceable(32) %str) #47
  %call4 = tail call noundef ptr @_ZNKSt7__cxx1112basic_stringIcSt11char_traitsIcESaIcEE5c_strEv(ptr noundef nonnull align 8 dereferenceable(32) %suffix) #47
  %cmp.i = icmp eq ptr %call2, null
  %cmp1.i = icmp eq ptr %call4, null
  %brmerge.i = or i1 %cmp.i, %cmp1.i
  %cmp1.mux.i = and i1 %cmp.i, %cmp1.i
  br i1 %brmerge.i, label %land.end, label %if.end4.i

if.end4.i:                                        ; preds = %land.rhs
  %add.ptr = getelementptr inbounds i8, ptr %call2, i64 %call
  %idx.neg = sub i64 0, %call1
  %add.ptr3 = getelementptr inbounds i8, ptr %add.ptr, i64 %idx.neg
  %call.i.i = tail call noundef i32 @strcasecmp(ptr noundef nonnull %add.ptr3, ptr noundef nonnull %call4) #48
  %cmp5.i = icmp eq i32 %call.i.i, 0
  br label %land.end

land.end:                                         ; preds = %if.end4.i, %land.rhs, %entry
  %0 = phi i1 [ false, %entry ], [ %cmp5.i, %if.end4.i ], [ %cmp1.mux.i, %land.rhs ]
  ret i1 %0
}